---
triple:          'arm64-apple-darwin'
binary-path:     '/Users/chimmini/Desktop/BOJ_solve/2024/Apr_24/21_2015'
relocations:
  - { offsetInCU: 0x3F, offset: 0x3F, size: 0x8, addend: 0x0, symName: _p_sum, symObjAddr: 0x1E110, symBinAddr: 0x100008000, symSize: 0x0 }
  - { offsetInCU: 0x7B, offset: 0x7B, size: 0x8, addend: 0x0, symName: __ZNSt3__119piecewise_constructE, symObjAddr: 0x2650, symBinAddr: 0x100003DC4, symSize: 0x0 }
  - { offsetInCU: 0x3AEF, offset: 0x3AEF, size: 0x8, addend: 0x0, symName: __ZNSt3__17launderB8ue170006INS_4pairIKixEEEEPT_S5_, symObjAddr: 0x8F0, symBinAddr: 0x100001F50, symSize: 0x24 }
  - { offsetInCU: 0x3B26, offset: 0x3B26, size: 0x8, addend: 0x0, symName: __ZNSt3__19__launderB8ue170006INS_4pairIKixEEEEPT_S5_, symObjAddr: 0x914, symBinAddr: 0x100001F74, symSize: 0x14 }
  - { offsetInCU: 0x3B5D, offset: 0x3B5D, size: 0x8, addend: 0x0, symName: __ZNSt3__119__libcpp_deallocateB8ue170006EPvmm, symObjAddr: 0x96C, symBinAddr: 0x100001FCC, symSize: 0x60 }
  - { offsetInCU: 0x3BC2, offset: 0x3BC2, size: 0x8, addend: 0x0, symName: __ZNSt3__124__is_overaligned_for_newB8ue170006Em, symObjAddr: 0x9CC, symBinAddr: 0x10000202C, symSize: 0x20 }
  - { offsetInCU: 0x3BF0, offset: 0x3BF0, size: 0x8, addend: 0x0, symName: __ZNSt3__127__do_deallocate_handle_sizeB8ue170006IJSt11align_val_tEEEvPvmDpT_, symObjAddr: 0x9EC, symBinAddr: 0x10000204C, symSize: 0x30 }
  - { offsetInCU: 0x3C43, offset: 0x3C43, size: 0x8, addend: 0x0, symName: __ZNSt3__127__do_deallocate_handle_sizeB8ue170006IJEEEvPvmDpT_, symObjAddr: 0xA1C, symBinAddr: 0x10000207C, symSize: 0x28 }
  - { offsetInCU: 0x3C81, offset: 0x3C81, size: 0x8, addend: 0x0, symName: __ZNSt3__124__libcpp_operator_deleteB8ue170006IJPvSt11align_val_tEEEvDpT_, symObjAddr: 0xA44, symBinAddr: 0x1000020A4, symSize: 0x2C }
  - { offsetInCU: 0x3CCA, offset: 0x3CCA, size: 0x8, addend: 0x0, symName: __ZNSt3__124__libcpp_operator_deleteB8ue170006IJPvEEEvDpT_, symObjAddr: 0xA70, symBinAddr: 0x1000020D0, symSize: 0x24 }
  - { offsetInCU: 0x3D36, offset: 0x3D36, size: 0x8, addend: 0x0, symName: __ZNSt3__116forward_as_tupleB8ue170006IJiEEENS_5tupleIJDpOT_EEES4_, symObjAddr: 0xBF8, symBinAddr: 0x100002258, symSize: 0x2C }
  - { offsetInCU: 0x3D6F, offset: 0x3D6F, size: 0x8, addend: 0x0, symName: __ZNSt3__116forward_as_tupleB8ue170006IJEEENS_5tupleIJDpOT_EEES4_, symObjAddr: 0xC24, symBinAddr: 0x100002284, symSize: 0x4 }
  - { offsetInCU: 0x3D93, offset: 0x3D93, size: 0x8, addend: 0x0, symName: __ZNSt3__17launderB8ue170006IKNS_4pairIKixEEEEPT_S6_, symObjAddr: 0x1240, symBinAddr: 0x1000028A0, symSize: 0x24 }
  - { offsetInCU: 0x3DCA, offset: 0x3DCA, size: 0x8, addend: 0x0, symName: __ZNSt3__19__launderB8ue170006IKNS_4pairIKixEEEEPT_S6_, symObjAddr: 0x1264, symBinAddr: 0x1000028C4, symSize: 0x14 }
  - { offsetInCU: 0x3E1F, offset: 0x3E1F, size: 0x8, addend: 0x0, symName: __ZNSt3__117__libcpp_allocateB8ue170006Emm, symObjAddr: 0x146C, symBinAddr: 0x100002ACC, symSize: 0x60 }
  - { offsetInCU: 0x3E79, offset: 0x3E79, size: 0x8, addend: 0x0, symName: __ZNSt3__121__libcpp_operator_newB8ue170006IJmSt11align_val_tEEEPvDpT_, symObjAddr: 0x14E4, symBinAddr: 0x100002B44, symSize: 0x2C }
  - { offsetInCU: 0x3EC6, offset: 0x3EC6, size: 0x8, addend: 0x0, symName: __ZNSt3__121__libcpp_operator_newB8ue170006IJmEEEPvDpT_, symObjAddr: 0x1510, symBinAddr: 0x100002B70, symSize: 0x24 }
  - { offsetInCU: 0x3F0A, offset: 0x3F0A, size: 0x8, addend: 0x0, symName: __ZNSt3__13getB8ue170006ILm0EJOiEEERNS_13tuple_elementIXT_ENS_5tupleIJDpT0_EEEE4typeERS6_, symObjAddr: 0x178C, symBinAddr: 0x100002DEC, symSize: 0x24 }
  - { offsetInCU: 0x3F4D, offset: 0x3F4D, size: 0x8, addend: 0x0, symName: __ZNSt3__127__tree_balance_after_insertB8ue170006IPNS_16__tree_node_baseIPvEEEEvT_S5_, symObjAddr: 0x183C, symBinAddr: 0x100002E9C, symSize: 0x32C }
  - { offsetInCU: 0x3FC9, offset: 0x3FC9, size: 0x8, addend: 0x0, symName: __ZNSt3__120__tree_is_left_childB8ue170006IPNS_16__tree_node_baseIPvEEEEbT_, symObjAddr: 0x1BA8, symBinAddr: 0x100003208, symSize: 0x2C }
  - { offsetInCU: 0x3FFE, offset: 0x3FFE, size: 0x8, addend: 0x0, symName: __ZNSt3__118__tree_left_rotateB8ue170006IPNS_16__tree_node_baseIPvEEEEvT_, symObjAddr: 0x1BD4, symBinAddr: 0x100003234, symSize: 0xD8 }
  - { offsetInCU: 0x4040, offset: 0x4040, size: 0x8, addend: 0x0, symName: __ZNSt3__119__tree_right_rotateB8ue170006IPNS_16__tree_node_baseIPvEEEEvT_, symObjAddr: 0x1CAC, symBinAddr: 0x10000330C, symSize: 0xCC }
  - { offsetInCU: 0x40D9, offset: 0x40D9, size: 0x8, addend: 0x0, symName: __ZNSt3__116forward_as_tupleB8ue170006IJRKiEEENS_5tupleIJDpOT_EEES6_, symObjAddr: 0x21B8, symBinAddr: 0x100003818, symSize: 0x2C }
  - { offsetInCU: 0x4112, offset: 0x4112, size: 0x8, addend: 0x0, symName: __ZNSt3__13getB8ue170006ILm0EJRKiEEERNS_13tuple_elementIXT_ENS_5tupleIJDpT0_EEEE4typeERS7_, symObjAddr: 0x2454, symBinAddr: 0x100003AB4, symSize: 0x24 }
  - { offsetInCU: 0x417C, offset: 0x417C, size: 0x8, addend: 0x0, symName: __ZSt28__throw_bad_array_new_lengthB8ue170006v, symObjAddr: 0x1438, symBinAddr: 0x100002A98, symSize: 0x34 }
  - { offsetInCU: 0x6920, offset: 0x6920, size: 0x8, addend: 0x0, symName: _main, symObjAddr: 0x0, symBinAddr: 0x100001660, symSize: 0x184 }
  - { offsetInCU: 0x699C, offset: 0x699C, size: 0x8, addend: 0x0, symName: __ZNSt3__13mapIixNS_4lessIiEENS_9allocatorINS_4pairIKixEEEEEC1B8ue170006Ev, symObjAddr: 0x184, symBinAddr: 0x1000017E4, symSize: 0x2C }
  - { offsetInCU: 0x69C4, offset: 0x69C4, size: 0x8, addend: 0x0, symName: __ZNSt3__13mapIixNS_4lessIiEENS_9allocatorINS_4pairIKixEEEEEixEOi, symObjAddr: 0x1B0, symBinAddr: 0x100001810, symSize: 0x80 }
  - { offsetInCU: 0x69F9, offset: 0x69F9, size: 0x8, addend: 0x0, symName: __ZNSt3__13mapIixNS_4lessIiEENS_9allocatorINS_4pairIKixEEEEEixERS5_, symObjAddr: 0x230, symBinAddr: 0x100001890, symSize: 0x80 }
  - { offsetInCU: 0x6A2E, offset: 0x6A2E, size: 0x8, addend: 0x0, symName: __ZNSt3__13mapIixNS_4lessIiEENS_9allocatorINS_4pairIKixEEEEED1B8ue170006Ev, symObjAddr: 0x2B0, symBinAddr: 0x100001910, symSize: 0x2C }
  - { offsetInCU: 0x6A56, offset: 0x6A56, size: 0x8, addend: 0x0, symName: __ZNSt3__13mapIixNS_4lessIiEENS_9allocatorINS_4pairIKixEEEEEC2B8ue170006Ev, symObjAddr: 0x2DC, symBinAddr: 0x10000193C, symSize: 0x40 }
  - { offsetInCU: 0x6A7E, offset: 0x6A7E, size: 0x8, addend: 0x0, symName: __ZNSt3__119__map_value_compareIiNS_12__value_typeIixEENS_4lessIiEELb1EEC1B8ue170006ES4_, symObjAddr: 0x31C, symBinAddr: 0x10000197C, symSize: 0x2C }
  - { offsetInCU: 0x6AB5, offset: 0x6AB5, size: 0x8, addend: 0x0, symName: __ZNSt3__16__treeINS_12__value_typeIixEENS_19__map_value_compareIiS2_NS_4lessIiEELb1EEENS_9allocatorIS2_EEEC1ERKS6_, symObjAddr: 0x348, symBinAddr: 0x1000019A8, symSize: 0x34 }
  - { offsetInCU: 0x6AEE, offset: 0x6AEE, size: 0x8, addend: 0x0, symName: __ZNSt3__119__map_value_compareIiNS_12__value_typeIixEENS_4lessIiEELb1EEC2B8ue170006ES4_, symObjAddr: 0x37C, symBinAddr: 0x1000019DC, symSize: 0x14 }
  - { offsetInCU: 0x6B25, offset: 0x6B25, size: 0x8, addend: 0x0, symName: __ZNSt3__16__treeINS_12__value_typeIixEENS_19__map_value_compareIiS2_NS_4lessIiEELb1EEENS_9allocatorIS2_EEEC2ERKS6_, symObjAddr: 0x390, symBinAddr: 0x1000019F0, symSize: 0x7C }
  - { offsetInCU: 0x6B5E, offset: 0x6B5E, size: 0x8, addend: 0x0, symName: __ZNSt3__117__compressed_pairINS_15__tree_end_nodeIPNS_16__tree_node_baseIPvEEEENS_9allocatorINS_11__tree_nodeINS_12__value_typeIixEES3_EEEEEC1B8ue170006ILb1EvEEv, symObjAddr: 0x40C, symBinAddr: 0x100001A6C, symSize: 0x2C }
  - { offsetInCU: 0x6B91, offset: 0x6B91, size: 0x8, addend: 0x0, symName: __ZNSt3__117__compressed_pairImNS_19__map_value_compareIiNS_12__value_typeIixEENS_4lessIiEELb1EEEEC1B8ue170006IiRKS6_EEOT_OT0_, symObjAddr: 0x444, symBinAddr: 0x100001AA4, symSize: 0x3C }
  - { offsetInCU: 0x6BE7, offset: 0x6BE7, size: 0x8, addend: 0x0, symName: __ZNSt3__16__treeINS_12__value_typeIixEENS_19__map_value_compareIiS2_NS_4lessIiEELb1EEENS_9allocatorIS2_EEE10__end_nodeB8ue170006Ev, symObjAddr: 0x480, symBinAddr: 0x100001AE0, symSize: 0x2C }
  - { offsetInCU: 0x6C0B, offset: 0x6C0B, size: 0x8, addend: 0x0, symName: __ZNSt3__16__treeINS_12__value_typeIixEENS_19__map_value_compareIiS2_NS_4lessIiEELb1EEENS_9allocatorIS2_EEE12__begin_nodeB8ue170006Ev, symObjAddr: 0x4AC, symBinAddr: 0x100001B0C, symSize: 0x14 }
  - { offsetInCU: 0x6C2F, offset: 0x6C2F, size: 0x8, addend: 0x0, symName: __ZNSt3__117__compressed_pairINS_15__tree_end_nodeIPNS_16__tree_node_baseIPvEEEENS_9allocatorINS_11__tree_nodeINS_12__value_typeIixEES3_EEEEEC2B8ue170006ILb1EvEEv, symObjAddr: 0x4C0, symBinAddr: 0x100001B20, symSize: 0x34 }
  - { offsetInCU: 0x6C62, offset: 0x6C62, size: 0x8, addend: 0x0, symName: __ZNSt3__122__compressed_pair_elemINS_15__tree_end_nodeIPNS_16__tree_node_baseIPvEEEELi0ELb0EEC2B8ue170006ENS_16__value_init_tagE, symObjAddr: 0x4F4, symBinAddr: 0x100001B54, symSize: 0x2C }
  - { offsetInCU: 0x6C94, offset: 0x6C94, size: 0x8, addend: 0x0, symName: __ZNSt3__122__compressed_pair_elemINS_9allocatorINS_11__tree_nodeINS_12__value_typeIixEEPvEEEELi1ELb1EEC2B8ue170006ENS_16__value_init_tagE, symObjAddr: 0x520, symBinAddr: 0x100001B80, symSize: 0x2C }
  - { offsetInCU: 0x6CC6, offset: 0x6CC6, size: 0x8, addend: 0x0, symName: __ZNSt3__115__tree_end_nodeIPNS_16__tree_node_baseIPvEEEC1B8ue170006Ev, symObjAddr: 0x54C, symBinAddr: 0x100001BAC, symSize: 0x2C }
  - { offsetInCU: 0x6CEE, offset: 0x6CEE, size: 0x8, addend: 0x0, symName: __ZNSt3__115__tree_end_nodeIPNS_16__tree_node_baseIPvEEEC2B8ue170006Ev, symObjAddr: 0x578, symBinAddr: 0x100001BD8, symSize: 0x18 }
  - { offsetInCU: 0x6D16, offset: 0x6D16, size: 0x8, addend: 0x0, symName: __ZNSt3__19allocatorINS_11__tree_nodeINS_12__value_typeIixEEPvEEEC2B8ue170006Ev, symObjAddr: 0x590, symBinAddr: 0x100001BF0, symSize: 0x2C }
  - { offsetInCU: 0x6D3E, offset: 0x6D3E, size: 0x8, addend: 0x0, symName: __ZNSt3__116__non_trivial_ifILb1ENS_9allocatorINS_11__tree_nodeINS_12__value_typeIixEEPvEEEEEC2B8ue170006Ev, symObjAddr: 0x5BC, symBinAddr: 0x100001C1C, symSize: 0x14 }
  - { offsetInCU: 0x6D66, offset: 0x6D66, size: 0x8, addend: 0x0, symName: __ZNSt3__117__compressed_pairImNS_19__map_value_compareIiNS_12__value_typeIixEENS_4lessIiEELb1EEEEC2B8ue170006IiRKS6_EEOT_OT0_, symObjAddr: 0x5D0, symBinAddr: 0x100001C30, symSize: 0x44 }
  - { offsetInCU: 0x6DBC, offset: 0x6DBC, size: 0x8, addend: 0x0, symName: __ZNSt3__122__compressed_pair_elemImLi0ELb0EEC2B8ue170006IivEEOT_, symObjAddr: 0x614, symBinAddr: 0x100001C74, symSize: 0x24 }
  - { offsetInCU: 0x6DFC, offset: 0x6DFC, size: 0x8, addend: 0x0, symName: __ZNSt3__122__compressed_pair_elemINS_19__map_value_compareIiNS_12__value_typeIixEENS_4lessIiEELb1EEELi1ELb1EEC2B8ue170006IRKS6_vEEOT_, symObjAddr: 0x638, symBinAddr: 0x100001C98, symSize: 0x18 }
  - { offsetInCU: 0x6E3C, offset: 0x6E3C, size: 0x8, addend: 0x0, symName: __ZNSt3__114pointer_traitsIPNS_15__tree_end_nodeIPNS_16__tree_node_baseIPvEEEEE10pointer_toB8ue170006ERS6_, symObjAddr: 0x650, symBinAddr: 0x100001CB0, symSize: 0x14 }
  - { offsetInCU: 0x6E5E, offset: 0x6E5E, size: 0x8, addend: 0x0, symName: __ZNSt3__117__compressed_pairINS_15__tree_end_nodeIPNS_16__tree_node_baseIPvEEEENS_9allocatorINS_11__tree_nodeINS_12__value_typeIixEES3_EEEEE5firstB8ue170006Ev, symObjAddr: 0x664, symBinAddr: 0x100001CC4, symSize: 0x24 }
  - { offsetInCU: 0x6E82, offset: 0x6E82, size: 0x8, addend: 0x0, symName: __ZNSt3__122__compressed_pair_elemINS_15__tree_end_nodeIPNS_16__tree_node_baseIPvEEEELi0ELb0EE5__getB8ue170006Ev, symObjAddr: 0x688, symBinAddr: 0x100001CE8, symSize: 0x14 }
  - { offsetInCU: 0x6EA6, offset: 0x6EA6, size: 0x8, addend: 0x0, symName: __ZNSt3__13mapIixNS_4lessIiEENS_9allocatorINS_4pairIKixEEEEED2B8ue170006Ev, symObjAddr: 0x69C, symBinAddr: 0x100001CFC, symSize: 0x2C }
  - { offsetInCU: 0x6ECE, offset: 0x6ECE, size: 0x8, addend: 0x0, symName: __ZNSt3__16__treeINS_12__value_typeIixEENS_19__map_value_compareIiS2_NS_4lessIiEELb1EEENS_9allocatorIS2_EEED1Ev, symObjAddr: 0x6C8, symBinAddr: 0x100001D28, symSize: 0x2C }
  - { offsetInCU: 0x6EF8, offset: 0x6EF8, size: 0x8, addend: 0x0, symName: __ZNSt3__16__treeINS_12__value_typeIixEENS_19__map_value_compareIiS2_NS_4lessIiEELb1EEENS_9allocatorIS2_EEED2Ev, symObjAddr: 0x6F4, symBinAddr: 0x100001D54, symSize: 0x38 }
  - { offsetInCU: 0x6F22, offset: 0x6F22, size: 0x8, addend: 0x0, symName: __ZNSt3__16__treeINS_12__value_typeIixEENS_19__map_value_compareIiS2_NS_4lessIiEELb1EEENS_9allocatorIS2_EEE7destroyEPNS_11__tree_nodeIS2_PvEE, symObjAddr: 0x72C, symBinAddr: 0x100001D8C, symSize: 0xAC }
  - { offsetInCU: 0x6F6C, offset: 0x6F6C, size: 0x8, addend: 0x0, symName: __ZNKSt3__16__treeINS_12__value_typeIixEENS_19__map_value_compareIiS2_NS_4lessIiEELb1EEENS_9allocatorIS2_EEE6__rootB8ue170006Ev, symObjAddr: 0x7D8, symBinAddr: 0x100001E38, symSize: 0x28 }
  - { offsetInCU: 0x6F90, offset: 0x6F90, size: 0x8, addend: 0x0, symName: __ZNSt3__16__treeINS_12__value_typeIixEENS_19__map_value_compareIiS2_NS_4lessIiEELb1EEENS_9allocatorIS2_EEE12__node_allocB8ue170006Ev, symObjAddr: 0x800, symBinAddr: 0x100001E60, symSize: 0x28 }
  - { offsetInCU: 0x6FB4, offset: 0x6FB4, size: 0x8, addend: 0x0, symName: __ZNSt3__116allocator_traitsINS_9allocatorINS_11__tree_nodeINS_12__value_typeIixEEPvEEEEE7destroyB8ue170006INS_4pairIKixEEvvEEvRS7_PT_, symObjAddr: 0x828, symBinAddr: 0x100001E88, symSize: 0x14 }
  - { offsetInCU: 0x6FED, offset: 0x6FED, size: 0x8, addend: 0x0, symName: __ZNSt3__122__tree_key_value_typesINS_12__value_typeIixEEE9__get_ptrB8ue170006ERS2_, symObjAddr: 0x83C, symBinAddr: 0x100001E9C, symSize: 0x24 }
  - { offsetInCU: 0x7010, offset: 0x7010, size: 0x8, addend: 0x0, symName: __ZNSt3__116allocator_traitsINS_9allocatorINS_11__tree_nodeINS_12__value_typeIixEEPvEEEEE10deallocateB8ue170006ERS7_PS6_m, symObjAddr: 0x860, symBinAddr: 0x100001EC0, symSize: 0x34 }
  - { offsetInCU: 0x7051, offset: 0x7051, size: 0x8, addend: 0x0, symName: __ZNSt3__117__compressed_pairINS_15__tree_end_nodeIPNS_16__tree_node_baseIPvEEEENS_9allocatorINS_11__tree_nodeINS_12__value_typeIixEES3_EEEEE6secondB8ue170006Ev, symObjAddr: 0x894, symBinAddr: 0x100001EF4, symSize: 0x24 }
  - { offsetInCU: 0x7075, offset: 0x7075, size: 0x8, addend: 0x0, symName: __ZNSt3__122__compressed_pair_elemINS_9allocatorINS_11__tree_nodeINS_12__value_typeIixEEPvEEEELi1ELb1EE5__getB8ue170006Ev, symObjAddr: 0x8B8, symBinAddr: 0x100001F18, symSize: 0x14 }
  - { offsetInCU: 0x7099, offset: 0x7099, size: 0x8, addend: 0x0, symName: __ZNSt3__112__value_typeIixE11__get_valueB8ue170006Ev, symObjAddr: 0x8CC, symBinAddr: 0x100001F2C, symSize: 0x24 }
  - { offsetInCU: 0x70BD, offset: 0x70BD, size: 0x8, addend: 0x0, symName: __ZNSt3__19allocatorINS_11__tree_nodeINS_12__value_typeIixEEPvEEE10deallocateB8ue170006EPS5_m, symObjAddr: 0x928, symBinAddr: 0x100001F88, symSize: 0x44 }
  - { offsetInCU: 0x70FD, offset: 0x70FD, size: 0x8, addend: 0x0, symName: __ZNKSt3__16__treeINS_12__value_typeIixEENS_19__map_value_compareIiS2_NS_4lessIiEELb1EEENS_9allocatorIS2_EEE10__end_nodeB8ue170006Ev, symObjAddr: 0xA94, symBinAddr: 0x1000020F4, symSize: 0x2C }
  - { offsetInCU: 0x7121, offset: 0x7121, size: 0x8, addend: 0x0, symName: __ZNKSt3__117__compressed_pairINS_15__tree_end_nodeIPNS_16__tree_node_baseIPvEEEENS_9allocatorINS_11__tree_nodeINS_12__value_typeIixEES3_EEEEE5firstB8ue170006Ev, symObjAddr: 0xAC0, symBinAddr: 0x100002120, symSize: 0x24 }
  - { offsetInCU: 0x7145, offset: 0x7145, size: 0x8, addend: 0x0, symName: __ZNKSt3__122__compressed_pair_elemINS_15__tree_end_nodeIPNS_16__tree_node_baseIPvEEEELi0ELb0EE5__getB8ue170006Ev, symObjAddr: 0xAE4, symBinAddr: 0x100002144, symSize: 0x14 }
  - { offsetInCU: 0x717D, offset: 0x717D, size: 0x8, addend: 0x0, symName: __ZNSt3__16__treeINS_12__value_typeIixEENS_19__map_value_compareIiS2_NS_4lessIiEELb1EEENS_9allocatorIS2_EEE25__emplace_unique_key_argsIiJRKNS_21piecewise_construct_tENS_5tupleIJOiEEENSE_IJEEEEEENS_4pairINS_15__tree_iteratorIS2_PNS_11__tree_nodeIS2_PvEElEEbEERKT_DpOT0_, symObjAddr: 0xAF8, symBinAddr: 0x100002158, symSize: 0x100 }
  - { offsetInCU: 0x7251, offset: 0x7251, size: 0x8, addend: 0x0, symName: __ZNKSt3__115__tree_iteratorINS_12__value_typeIixEEPNS_11__tree_nodeIS2_PvEElEptB8ue170006Ev, symObjAddr: 0xC28, symBinAddr: 0x100002288, symSize: 0x2C }
  - { offsetInCU: 0x7275, offset: 0x7275, size: 0x8, addend: 0x0, symName: __ZNSt3__16__treeINS_12__value_typeIixEENS_19__map_value_compareIiS2_NS_4lessIiEELb1EEENS_9allocatorIS2_EEE12__find_equalIiEERPNS_16__tree_node_baseIPvEERPNS_15__tree_end_nodeISE_EERKT_, symObjAddr: 0xC54, symBinAddr: 0x1000022B4, symSize: 0x184 }
  - { offsetInCU: 0x72E0, offset: 0x72E0, size: 0x8, addend: 0x0, symName: __ZNSt3__16__treeINS_12__value_typeIixEENS_19__map_value_compareIiS2_NS_4lessIiEELb1EEENS_9allocatorIS2_EEE16__construct_nodeIJRKNS_21piecewise_construct_tENS_5tupleIJOiEEENSE_IJEEEEEENS_10unique_ptrINS_11__tree_nodeIS2_PvEENS_22__tree_node_destructorINS7_ISL_EEEEEEDpOT_, symObjAddr: 0xDD8, symBinAddr: 0x100002438, symSize: 0x120 }
  - { offsetInCU: 0x7367, offset: 0x7367, size: 0x8, addend: 0x0, symName: __ZNSt3__16__treeINS_12__value_typeIixEENS_19__map_value_compareIiS2_NS_4lessIiEELb1EEENS_9allocatorIS2_EEE16__insert_node_atEPNS_15__tree_end_nodeIPNS_16__tree_node_baseIPvEEEERSE_SE_, symObjAddr: 0xEF8, symBinAddr: 0x100002558, symSize: 0xCC }
  - { offsetInCU: 0x73BA, offset: 0x73BA, size: 0x8, addend: 0x0, symName: __ZNKSt3__110unique_ptrINS_11__tree_nodeINS_12__value_typeIixEEPvEENS_22__tree_node_destructorINS_9allocatorIS5_EEEEE3getB8ue170006Ev, symObjAddr: 0xFC4, symBinAddr: 0x100002624, symSize: 0x28 }
  - { offsetInCU: 0x73DE, offset: 0x73DE, size: 0x8, addend: 0x0, symName: __ZNSt3__110unique_ptrINS_11__tree_nodeINS_12__value_typeIixEEPvEENS_22__tree_node_destructorINS_9allocatorIS5_EEEEE7releaseB8ue170006Ev, symObjAddr: 0xFEC, symBinAddr: 0x10000264C, symSize: 0x44 }
  - { offsetInCU: 0x7411, offset: 0x7411, size: 0x8, addend: 0x0, symName: __ZNSt3__110unique_ptrINS_11__tree_nodeINS_12__value_typeIixEEPvEENS_22__tree_node_destructorINS_9allocatorIS5_EEEEED1B8ue170006Ev, symObjAddr: 0x1030, symBinAddr: 0x100002690, symSize: 0x2C }
  - { offsetInCU: 0x7439, offset: 0x7439, size: 0x8, addend: 0x0, symName: __ZNSt3__115__tree_iteratorINS_12__value_typeIixEEPNS_11__tree_nodeIS2_PvEElEC1B8ue170006ES6_, symObjAddr: 0x105C, symBinAddr: 0x1000026BC, symSize: 0x34 }
  - { offsetInCU: 0x747A, offset: 0x747A, size: 0x8, addend: 0x0, symName: __ZNSt3__14pairINS_15__tree_iteratorINS_12__value_typeIixEEPNS_11__tree_nodeIS3_PvEElEEbEC1B8ue170006IS8_RbLS5_0EEEOT_OT0_, symObjAddr: 0x1090, symBinAddr: 0x1000026F0, symSize: 0x3C }
  - { offsetInCU: 0x74D6, offset: 0x74D6, size: 0x8, addend: 0x0, symName: __ZNKSt3__16__treeINS_12__value_typeIixEENS_19__map_value_compareIiS2_NS_4lessIiEELb1EEENS_9allocatorIS2_EEE10__root_ptrB8ue170006Ev, symObjAddr: 0x10CC, symBinAddr: 0x10000272C, symSize: 0x24 }
  - { offsetInCU: 0x74FA, offset: 0x74FA, size: 0x8, addend: 0x0, symName: __ZNSt3__16__treeINS_12__value_typeIixEENS_19__map_value_compareIiS2_NS_4lessIiEELb1EEENS_9allocatorIS2_EEE10value_compB8ue170006Ev, symObjAddr: 0x10F0, symBinAddr: 0x100002750, symSize: 0x28 }
  - { offsetInCU: 0x751E, offset: 0x751E, size: 0x8, addend: 0x0, symName: __ZNKSt3__119__map_value_compareIiNS_12__value_typeIixEENS_4lessIiEELb1EEclB8ue170006ERKiRKS2_, symObjAddr: 0x1118, symBinAddr: 0x100002778, symSize: 0x50 }
  - { offsetInCU: 0x7560, offset: 0x7560, size: 0x8, addend: 0x0, symName: __ZNKSt3__119__map_value_compareIiNS_12__value_typeIixEENS_4lessIiEELb1EEclB8ue170006ERKS2_RKi, symObjAddr: 0x1168, symBinAddr: 0x1000027C8, symSize: 0x48 }
  - { offsetInCU: 0x75A2, offset: 0x75A2, size: 0x8, addend: 0x0, symName: __ZNSt3__117__compressed_pairImNS_19__map_value_compareIiNS_12__value_typeIixEENS_4lessIiEELb1EEEE6secondB8ue170006Ev, symObjAddr: 0x11B0, symBinAddr: 0x100002810, symSize: 0x24 }
  - { offsetInCU: 0x75C6, offset: 0x75C6, size: 0x8, addend: 0x0, symName: __ZNSt3__122__compressed_pair_elemINS_19__map_value_compareIiNS_12__value_typeIixEENS_4lessIiEELb1EEELi1ELb1EE5__getB8ue170006Ev, symObjAddr: 0x11D4, symBinAddr: 0x100002834, symSize: 0x14 }
  - { offsetInCU: 0x75EA, offset: 0x75EA, size: 0x8, addend: 0x0, symName: __ZNKSt3__14lessIiEclB8ue170006ERKiS3_, symObjAddr: 0x11E8, symBinAddr: 0x100002848, symSize: 0x34 }
  - { offsetInCU: 0x762C, offset: 0x762C, size: 0x8, addend: 0x0, symName: __ZNKSt3__112__value_typeIixE11__get_valueB8ue170006Ev, symObjAddr: 0x121C, symBinAddr: 0x10000287C, symSize: 0x24 }
  - { offsetInCU: 0x7650, offset: 0x7650, size: 0x8, addend: 0x0, symName: __ZNSt3__116allocator_traitsINS_9allocatorINS_11__tree_nodeINS_12__value_typeIixEEPvEEEEE8allocateB8ue170006ERS7_m, symObjAddr: 0x1278, symBinAddr: 0x1000028D8, symSize: 0x2C }
  - { offsetInCU: 0x7682, offset: 0x7682, size: 0x8, addend: 0x0, symName: __ZNSt3__122__tree_node_destructorINS_9allocatorINS_11__tree_nodeINS_12__value_typeIixEEPvEEEEEC1B8ue170006ERS7_b, symObjAddr: 0x12A4, symBinAddr: 0x100002904, symSize: 0x48 }
  - { offsetInCU: 0x76CD, offset: 0x76CD, size: 0x8, addend: 0x0, symName: __ZNSt3__110unique_ptrINS_11__tree_nodeINS_12__value_typeIixEEPvEENS_22__tree_node_destructorINS_9allocatorIS5_EEEEEC1B8ue170006ILb1EvEEPS5_NS_16__dependent_typeINS_27__unique_ptr_deleter_sfinaeIS9_EEXT_EE20__good_rval_ref_typeE, symObjAddr: 0x12EC, symBinAddr: 0x10000294C, symSize: 0x3C }
  - { offsetInCU: 0x771C, offset: 0x771C, size: 0x8, addend: 0x0, symName: __ZNSt3__116allocator_traitsINS_9allocatorINS_11__tree_nodeINS_12__value_typeIixEEPvEEEEE9constructB8ue170006INS_4pairIKixEEJRKNS_21piecewise_construct_tENS_5tupleIJOiEEENSG_IJEEEEvEEvRS7_PT_DpOT0_, symObjAddr: 0x1328, symBinAddr: 0x100002988, symSize: 0x44 }
  - { offsetInCU: 0x779A, offset: 0x779A, size: 0x8, addend: 0x0, symName: __ZNKSt3__110unique_ptrINS_11__tree_nodeINS_12__value_typeIixEEPvEENS_22__tree_node_destructorINS_9allocatorIS5_EEEEEptB8ue170006Ev, symObjAddr: 0x136C, symBinAddr: 0x1000029CC, symSize: 0x28 }
  - { offsetInCU: 0x77BE, offset: 0x77BE, size: 0x8, addend: 0x0, symName: __ZNSt3__110unique_ptrINS_11__tree_nodeINS_12__value_typeIixEEPvEENS_22__tree_node_destructorINS_9allocatorIS5_EEEEE11get_deleterB8ue170006Ev, symObjAddr: 0x1394, symBinAddr: 0x1000029F4, symSize: 0x24 }
  - { offsetInCU: 0x77E2, offset: 0x77E2, size: 0x8, addend: 0x0, symName: __ZNSt3__19allocatorINS_11__tree_nodeINS_12__value_typeIixEEPvEEE8allocateB8ue170006Em, symObjAddr: 0x13B8, symBinAddr: 0x100002A18, symSize: 0x5C }
  - { offsetInCU: 0x781E, offset: 0x781E, size: 0x8, addend: 0x0, symName: __ZNSt3__116allocator_traitsINS_9allocatorINS_11__tree_nodeINS_12__value_typeIixEEPvEEEEE8max_sizeB8ue170006IS7_vEEmRKS7_, symObjAddr: 0x1414, symBinAddr: 0x100002A74, symSize: 0x24 }
  - { offsetInCU: 0x784B, offset: 0x784B, size: 0x8, addend: 0x0, symName: __ZNKSt3__19allocatorINS_11__tree_nodeINS_12__value_typeIixEEPvEEE8max_sizeB8ue170006Ev, symObjAddr: 0x14CC, symBinAddr: 0x100002B2C, symSize: 0x18 }
  - { offsetInCU: 0x786F, offset: 0x786F, size: 0x8, addend: 0x0, symName: __ZNSt3__122__tree_node_destructorINS_9allocatorINS_11__tree_nodeINS_12__value_typeIixEEPvEEEEEC2B8ue170006ERS7_b, symObjAddr: 0x1534, symBinAddr: 0x100002B94, symSize: 0x38 }
  - { offsetInCU: 0x78B5, offset: 0x78B5, size: 0x8, addend: 0x0, symName: __ZNSt3__110unique_ptrINS_11__tree_nodeINS_12__value_typeIixEEPvEENS_22__tree_node_destructorINS_9allocatorIS5_EEEEEC2B8ue170006ILb1EvEEPS5_NS_16__dependent_typeINS_27__unique_ptr_deleter_sfinaeIS9_EEXT_EE20__good_rval_ref_typeE, symObjAddr: 0x156C, symBinAddr: 0x100002BCC, symSize: 0x48 }
  - { offsetInCU: 0x7904, offset: 0x7904, size: 0x8, addend: 0x0, symName: __ZNSt3__117__compressed_pairIPNS_11__tree_nodeINS_12__value_typeIixEEPvEENS_22__tree_node_destructorINS_9allocatorIS5_EEEEEC1B8ue170006IRS6_SA_EEOT_OT0_, symObjAddr: 0x15B4, symBinAddr: 0x100002C14, symSize: 0x3C }
  - { offsetInCU: 0x795A, offset: 0x795A, size: 0x8, addend: 0x0, symName: __ZNSt3__117__compressed_pairIPNS_11__tree_nodeINS_12__value_typeIixEEPvEENS_22__tree_node_destructorINS_9allocatorIS5_EEEEEC2B8ue170006IRS6_SA_EEOT_OT0_, symObjAddr: 0x15F0, symBinAddr: 0x100002C50, symSize: 0x48 }
  - { offsetInCU: 0x79B0, offset: 0x79B0, size: 0x8, addend: 0x0, symName: __ZNSt3__122__compressed_pair_elemIPNS_11__tree_nodeINS_12__value_typeIixEEPvEELi0ELb0EEC2B8ue170006IRS6_vEEOT_, symObjAddr: 0x1638, symBinAddr: 0x100002C98, symSize: 0x24 }
  - { offsetInCU: 0x79F0, offset: 0x79F0, size: 0x8, addend: 0x0, symName: __ZNSt3__122__compressed_pair_elemINS_22__tree_node_destructorINS_9allocatorINS_11__tree_nodeINS_12__value_typeIixEEPvEEEEEELi1ELb0EEC2B8ue170006IS9_vEEOT_, symObjAddr: 0x165C, symBinAddr: 0x100002CBC, symSize: 0x24 }
  - { offsetInCU: 0x7A30, offset: 0x7A30, size: 0x8, addend: 0x0, symName: __ZNSt3__19allocatorINS_11__tree_nodeINS_12__value_typeIixEEPvEEE9constructB8ue170006INS_4pairIKixEEJRKNS_21piecewise_construct_tENS_5tupleIJOiEEENSE_IJEEEEEEvPT_DpOT0_, symObjAddr: 0x1680, symBinAddr: 0x100002CE0, symSize: 0x44 }
  - { offsetInCU: 0x7AAA, offset: 0x7AAA, size: 0x8, addend: 0x0, symName: __ZNSt3__14pairIKixEC1B8ue170006IJOiEJEEENS_21piecewise_construct_tENS_5tupleIJDpT_EEENS6_IJDpT0_EEE, symObjAddr: 0x16C4, symBinAddr: 0x100002D24, symSize: 0x44 }
  - { offsetInCU: 0x7B0F, offset: 0x7B0F, size: 0x8, addend: 0x0, symName: __ZNSt3__14pairIKixEC1B8ue170006IJOiEJEJLm0EEJEEENS_21piecewise_construct_tERNS_5tupleIJDpT_EEERNS6_IJDpT0_EEENS_15__tuple_indicesIJXspT1_EEEENSF_IJXspT2_EEEE, symObjAddr: 0x1708, symBinAddr: 0x100002D68, symSize: 0x3C }
  - { offsetInCU: 0x7B9A, offset: 0x7B9A, size: 0x8, addend: 0x0, symName: __ZNSt3__14pairIKixEC2B8ue170006IJOiEJEJLm0EEJEEENS_21piecewise_construct_tERNS_5tupleIJDpT_EEERNS6_IJDpT0_EEENS_15__tuple_indicesIJXspT1_EEEENSF_IJXspT2_EEEE, symObjAddr: 0x1744, symBinAddr: 0x100002DA4, symSize: 0x48 }
  - { offsetInCU: 0x7C25, offset: 0x7C25, size: 0x8, addend: 0x0, symName: __ZNSt3__112__tuple_leafILm0EOiLb0EE3getB8ue170006Ev, symObjAddr: 0x17B0, symBinAddr: 0x100002E10, symSize: 0x18 }
  - { offsetInCU: 0x7C49, offset: 0x7C49, size: 0x8, addend: 0x0, symName: __ZNKSt3__117__compressed_pairIPNS_11__tree_nodeINS_12__value_typeIixEEPvEENS_22__tree_node_destructorINS_9allocatorIS5_EEEEE5firstB8ue170006Ev, symObjAddr: 0x17C8, symBinAddr: 0x100002E28, symSize: 0x24 }
  - { offsetInCU: 0x7C6D, offset: 0x7C6D, size: 0x8, addend: 0x0, symName: __ZNKSt3__122__compressed_pair_elemIPNS_11__tree_nodeINS_12__value_typeIixEEPvEELi0ELb0EE5__getB8ue170006Ev, symObjAddr: 0x17EC, symBinAddr: 0x100002E4C, symSize: 0x14 }
  - { offsetInCU: 0x7C91, offset: 0x7C91, size: 0x8, addend: 0x0, symName: __ZNSt3__117__compressed_pairIPNS_11__tree_nodeINS_12__value_typeIixEEPvEENS_22__tree_node_destructorINS_9allocatorIS5_EEEEE6secondB8ue170006Ev, symObjAddr: 0x1800, symBinAddr: 0x100002E60, symSize: 0x28 }
  - { offsetInCU: 0x7CB5, offset: 0x7CB5, size: 0x8, addend: 0x0, symName: __ZNSt3__122__compressed_pair_elemINS_22__tree_node_destructorINS_9allocatorINS_11__tree_nodeINS_12__value_typeIixEEPvEEEEEELi1ELb0EE5__getB8ue170006Ev, symObjAddr: 0x1828, symBinAddr: 0x100002E88, symSize: 0x14 }
  - { offsetInCU: 0x7CD9, offset: 0x7CD9, size: 0x8, addend: 0x0, symName: __ZNSt3__16__treeINS_12__value_typeIixEENS_19__map_value_compareIiS2_NS_4lessIiEELb1EEENS_9allocatorIS2_EEE4sizeB8ue170006Ev, symObjAddr: 0x1B68, symBinAddr: 0x1000031C8, symSize: 0x28 }
  - { offsetInCU: 0x7CFD, offset: 0x7CFD, size: 0x8, addend: 0x0, symName: __ZNKSt3__116__tree_node_baseIPvE15__parent_unsafeB8ue170006Ev, symObjAddr: 0x1B90, symBinAddr: 0x1000031F0, symSize: 0x18 }
  - { offsetInCU: 0x7D21, offset: 0x7D21, size: 0x8, addend: 0x0, symName: __ZNSt3__116__tree_node_baseIPvE12__set_parentB8ue170006EPS2_, symObjAddr: 0x1D78, symBinAddr: 0x1000033D8, symSize: 0x20 }
  - { offsetInCU: 0x7D54, offset: 0x7D54, size: 0x8, addend: 0x0, symName: __ZNSt3__117__compressed_pairImNS_19__map_value_compareIiNS_12__value_typeIixEENS_4lessIiEELb1EEEE5firstB8ue170006Ev, symObjAddr: 0x1D98, symBinAddr: 0x1000033F8, symSize: 0x24 }
  - { offsetInCU: 0x7D78, offset: 0x7D78, size: 0x8, addend: 0x0, symName: __ZNSt3__122__compressed_pair_elemImLi0ELb0EE5__getB8ue170006Ev, symObjAddr: 0x1DBC, symBinAddr: 0x10000341C, symSize: 0x14 }
  - { offsetInCU: 0x7D9C, offset: 0x7D9C, size: 0x8, addend: 0x0, symName: __ZNSt3__117__compressed_pairIPNS_11__tree_nodeINS_12__value_typeIixEEPvEENS_22__tree_node_destructorINS_9allocatorIS5_EEEEE5firstB8ue170006Ev, symObjAddr: 0x1DD0, symBinAddr: 0x100003430, symSize: 0x24 }
  - { offsetInCU: 0x7DC0, offset: 0x7DC0, size: 0x8, addend: 0x0, symName: __ZNSt3__122__compressed_pair_elemIPNS_11__tree_nodeINS_12__value_typeIixEEPvEELi0ELb0EE5__getB8ue170006Ev, symObjAddr: 0x1DF4, symBinAddr: 0x100003454, symSize: 0x14 }
  - { offsetInCU: 0x7DE4, offset: 0x7DE4, size: 0x8, addend: 0x0, symName: __ZNSt3__110unique_ptrINS_11__tree_nodeINS_12__value_typeIixEEPvEENS_22__tree_node_destructorINS_9allocatorIS5_EEEEED2B8ue170006Ev, symObjAddr: 0x1E08, symBinAddr: 0x100003468, symSize: 0x30 }
  - { offsetInCU: 0x7E0C, offset: 0x7E0C, size: 0x8, addend: 0x0, symName: __ZNSt3__110unique_ptrINS_11__tree_nodeINS_12__value_typeIixEEPvEENS_22__tree_node_destructorINS_9allocatorIS5_EEEEE5resetB8ue170006EPS5_, symObjAddr: 0x1E38, symBinAddr: 0x100003498, symSize: 0x78 }
  - { offsetInCU: 0x7E4E, offset: 0x7E4E, size: 0x8, addend: 0x0, symName: __ZNSt3__122__tree_node_destructorINS_9allocatorINS_11__tree_nodeINS_12__value_typeIixEEPvEEEEEclB8ue170006EPS6_, symObjAddr: 0x1EB0, symBinAddr: 0x100003510, symSize: 0x94 }
  - { offsetInCU: 0x7E81, offset: 0x7E81, size: 0x8, addend: 0x0, symName: __ZNSt3__115__tree_iteratorINS_12__value_typeIixEEPNS_11__tree_nodeIS2_PvEElEC2B8ue170006ES6_, symObjAddr: 0x1F44, symBinAddr: 0x1000035A4, symSize: 0x20 }
  - { offsetInCU: 0x7EB8, offset: 0x7EB8, size: 0x8, addend: 0x0, symName: __ZNSt3__14pairINS_15__tree_iteratorINS_12__value_typeIixEEPNS_11__tree_nodeIS3_PvEElEEbEC2B8ue170006IS8_RbLS5_0EEEOT_OT0_, symObjAddr: 0x1F64, symBinAddr: 0x1000035C4, symSize: 0x38 }
  - { offsetInCU: 0x7F14, offset: 0x7F14, size: 0x8, addend: 0x0, symName: __ZNSt3__15tupleIJOiEEC1B8ue170006IJiELi0EEEDpOT_, symObjAddr: 0x1F9C, symBinAddr: 0x1000035FC, symSize: 0x34 }
  - { offsetInCU: 0x7F5C, offset: 0x7F5C, size: 0x8, addend: 0x0, symName: __ZNSt3__15tupleIJOiEEC2B8ue170006IJiELi0EEEDpOT_, symObjAddr: 0x1FD0, symBinAddr: 0x100003630, symSize: 0x34 }
  - { offsetInCU: 0x7FA4, offset: 0x7FA4, size: 0x8, addend: 0x0, symName: __ZNSt3__112__tuple_implINS_15__tuple_indicesIJLm0EEEEJOiEEC1B8ue170006IJLm0EEJS3_EJEJEJiEEENS1_IJXspT_EEEENS_13__tuple_typesIJDpT0_EEENS1_IJXspT1_EEEENS7_IJDpT2_EEEDpOT3_, symObjAddr: 0x2004, symBinAddr: 0x100003664, symSize: 0x34 }
  - { offsetInCU: 0x8033, offset: 0x8033, size: 0x8, addend: 0x0, symName: __ZNSt3__112__tuple_implINS_15__tuple_indicesIJLm0EEEEJOiEEC2B8ue170006IJLm0EEJS3_EJEJEJiEEENS1_IJXspT_EEEENS_13__tuple_typesIJDpT0_EEENS1_IJXspT1_EEEENS7_IJDpT2_EEEDpOT3_, symObjAddr: 0x2038, symBinAddr: 0x100003698, symSize: 0x34 }
  - { offsetInCU: 0x80C2, offset: 0x80C2, size: 0x8, addend: 0x0, symName: __ZNSt3__112__tuple_leafILm0EOiLb0EEC2B8ue170006IivEEOT_, symObjAddr: 0x206C, symBinAddr: 0x1000036CC, symSize: 0x20 }
  - { offsetInCU: 0x8103, offset: 0x8103, size: 0x8, addend: 0x0, symName: __ZNSt3__114pointer_traitsIPNS_12__value_typeIixEEE10pointer_toB8ue170006ERS2_, symObjAddr: 0x208C, symBinAddr: 0x1000036EC, symSize: 0x14 }
  - { offsetInCU: 0x8125, offset: 0x8125, size: 0x8, addend: 0x0, symName: __ZNKSt3__115__tree_iteratorINS_12__value_typeIixEEPNS_11__tree_nodeIS2_PvEElE8__get_npB8ue170006Ev, symObjAddr: 0x20A0, symBinAddr: 0x100003700, symSize: 0x18 }
  - { offsetInCU: 0x8149, offset: 0x8149, size: 0x8, addend: 0x0, symName: __ZNSt3__16__treeINS_12__value_typeIixEENS_19__map_value_compareIiS2_NS_4lessIiEELb1EEENS_9allocatorIS2_EEE25__emplace_unique_key_argsIiJRKNS_21piecewise_construct_tENS_5tupleIJRKiEEENSE_IJEEEEEENS_4pairINS_15__tree_iteratorIS2_PNS_11__tree_nodeIS2_PvEElEEbEERKT_DpOT0_, symObjAddr: 0x20B8, symBinAddr: 0x100003718, symSize: 0x100 }
  - { offsetInCU: 0x821D, offset: 0x821D, size: 0x8, addend: 0x0, symName: __ZNSt3__16__treeINS_12__value_typeIixEENS_19__map_value_compareIiS2_NS_4lessIiEELb1EEENS_9allocatorIS2_EEE16__construct_nodeIJRKNS_21piecewise_construct_tENS_5tupleIJRKiEEENSE_IJEEEEEENS_10unique_ptrINS_11__tree_nodeIS2_PvEENS_22__tree_node_destructorINS7_ISM_EEEEEEDpOT_, symObjAddr: 0x21E4, symBinAddr: 0x100003844, symSize: 0x120 }
  - { offsetInCU: 0x82A4, offset: 0x82A4, size: 0x8, addend: 0x0, symName: __ZNSt3__116allocator_traitsINS_9allocatorINS_11__tree_nodeINS_12__value_typeIixEEPvEEEEE9constructB8ue170006INS_4pairIKixEEJRKNS_21piecewise_construct_tENS_5tupleIJRSB_EEENSG_IJEEEEvEEvRS7_PT_DpOT0_, symObjAddr: 0x2304, symBinAddr: 0x100003964, symSize: 0x44 }
  - { offsetInCU: 0x8322, offset: 0x8322, size: 0x8, addend: 0x0, symName: __ZNSt3__19allocatorINS_11__tree_nodeINS_12__value_typeIixEEPvEEE9constructB8ue170006INS_4pairIKixEEJRKNS_21piecewise_construct_tENS_5tupleIJRS9_EEENSE_IJEEEEEEvPT_DpOT0_, symObjAddr: 0x2348, symBinAddr: 0x1000039A8, symSize: 0x44 }
  - { offsetInCU: 0x839C, offset: 0x839C, size: 0x8, addend: 0x0, symName: __ZNSt3__14pairIKixEC1B8ue170006IJRS1_EJEEENS_21piecewise_construct_tENS_5tupleIJDpT_EEENS6_IJDpT0_EEE, symObjAddr: 0x238C, symBinAddr: 0x1000039EC, symSize: 0x44 }
  - { offsetInCU: 0x8401, offset: 0x8401, size: 0x8, addend: 0x0, symName: __ZNSt3__14pairIKixEC1B8ue170006IJRS1_EJEJLm0EEJEEENS_21piecewise_construct_tERNS_5tupleIJDpT_EEERNS6_IJDpT0_EEENS_15__tuple_indicesIJXspT1_EEEENSF_IJXspT2_EEEE, symObjAddr: 0x23D0, symBinAddr: 0x100003A30, symSize: 0x3C }
  - { offsetInCU: 0x848C, offset: 0x848C, size: 0x8, addend: 0x0, symName: __ZNSt3__14pairIKixEC2B8ue170006IJRS1_EJEJLm0EEJEEENS_21piecewise_construct_tERNS_5tupleIJDpT_EEERNS6_IJDpT0_EEENS_15__tuple_indicesIJXspT1_EEEENSF_IJXspT2_EEEE, symObjAddr: 0x240C, symBinAddr: 0x100003A6C, symSize: 0x48 }
  - { offsetInCU: 0x8517, offset: 0x8517, size: 0x8, addend: 0x0, symName: __ZNSt3__112__tuple_leafILm0ERKiLb0EE3getB8ue170006Ev, symObjAddr: 0x2478, symBinAddr: 0x100003AD8, symSize: 0x18 }
  - { offsetInCU: 0x853B, offset: 0x853B, size: 0x8, addend: 0x0, symName: __ZNSt3__15tupleIJRKiEEC1B8ue170006INS_4_AndELi0EEES2_, symObjAddr: 0x2490, symBinAddr: 0x100003AF0, symSize: 0x34 }
  - { offsetInCU: 0x8581, offset: 0x8581, size: 0x8, addend: 0x0, symName: __ZNSt3__15tupleIJRKiEEC2B8ue170006INS_4_AndELi0EEES2_, symObjAddr: 0x24C4, symBinAddr: 0x100003B24, symSize: 0x34 }
  - { offsetInCU: 0x85C7, offset: 0x85C7, size: 0x8, addend: 0x0, symName: __ZNSt3__112__tuple_implINS_15__tuple_indicesIJLm0EEEEJRKiEEC1B8ue170006IJLm0EEJS4_EJEJEJS4_EEENS1_IJXspT_EEEENS_13__tuple_typesIJDpT0_EEENS1_IJXspT1_EEEENS8_IJDpT2_EEEDpOT3_, symObjAddr: 0x24F8, symBinAddr: 0x100003B58, symSize: 0x34 }
  - { offsetInCU: 0x8656, offset: 0x8656, size: 0x8, addend: 0x0, symName: __ZNSt3__112__tuple_implINS_15__tuple_indicesIJLm0EEEEJRKiEEC2B8ue170006IJLm0EEJS4_EJEJEJS4_EEENS1_IJXspT_EEEENS_13__tuple_typesIJDpT0_EEENS1_IJXspT1_EEEENS8_IJDpT2_EEEDpOT3_, symObjAddr: 0x252C, symBinAddr: 0x100003B8C, symSize: 0x34 }
  - { offsetInCU: 0x86E5, offset: 0x86E5, size: 0x8, addend: 0x0, symName: __ZNSt3__112__tuple_leafILm0ERKiLb0EEC2B8ue170006IS2_vEEOT_, symObjAddr: 0x2560, symBinAddr: 0x100003BC0, symSize: 0x20 }
...
